target datalayout = "e-m:e-p270:32:32-p271:32:32-p272:64:64-i64:64-i128:128-f80:128-n8:16:32:64-S128"
target triple = "x86_64-pc-linux-gnu"

%struct._e_guid_t = type { i32, i16, i16, [8 x i8] }
%struct._dcerpc_info = type { ptr, i32, i64, i8, i32, i32, i32, i32, i32, i32, i32, i32, i32, i32, ptr, ptr, ptr }
%struct._dcerpc_call_value = type { %struct._e_guid_t, i16, %struct._e_guid_t, i16, i32, %struct.nstime_t, i32, i32, ptr, ptr, ptr, i32 }
%struct.nstime_t = type { i64, i32 }

@hf_drsuapi_drsuapi_DsCrackNames_req = internal global i32 -1, align 4
@hf_drsuapi_drsuapi_DsNameRequest_req1 = internal global i32 -1, align 4
@ett_drsuapi_drsuapi_DsNameRequest = internal global i32 -1, align 4
@.str.1753 = private unnamed_addr constant [22 x i8] c"drsuapi_DsNameRequest\00", align 1

; Function Attrs: nounwind uwtable
define internal i32 @drsuapi_dissect_element_DsNameRequest_req1(ptr noundef %0, i32 noundef %1, ptr noundef %2, ptr noundef %3, ptr noundef %4, ptr noundef %5) #0 {
  %7 = alloca ptr, align 8
  %8 = alloca i32, align 4
  %9 = alloca ptr, align 8
  %10 = alloca ptr, align 8
  %11 = alloca ptr, align 8
  %12 = alloca ptr, align 8
  store ptr %0, ptr %7, align 8
  store i32 %1, ptr %8, align 4
  store ptr %2, ptr %9, align 8
  store ptr %3, ptr %10, align 8
  store ptr %4, ptr %11, align 8
  store ptr %5, ptr %12, align 8
  %13 = load ptr, ptr %7, align 8
  %14 = load i32, ptr %8, align 4
  %15 = load ptr, ptr %9, align 8
  %16 = load ptr, ptr %10, align 8
  %17 = load ptr, ptr %11, align 8
  %18 = load ptr, ptr %12, align 8
  %19 = load i32, ptr @hf_drsuapi_drsuapi_DsNameRequest_req1, align 4
  %20 = call i32 @drsuapi_dissect_struct_DsNameRequest1(ptr noundef %13, i32 noundef %14, ptr noundef %15, ptr noundef %16, ptr noundef %17, ptr noundef %18, i32 noundef %19, i32 noundef 0)
  store i32 %20, ptr %8, align 4
  %21 = load i32, ptr %8, align 4
  ret i32 %21
}

; Function Attrs: nounwind uwtable
define internal i32 @drsuapi_dissect_DsNameRequest(ptr noundef %0, i32 noundef %1, ptr noundef %2, ptr noundef %3, ptr noundef %4, ptr noundef %5, i32 noundef %6, i32 noundef %7) #0 {
  %9 = alloca ptr, align 8
  %10 = alloca i32, align 4
  %11 = alloca ptr, align 8
  %12 = alloca ptr, align 8
  %13 = alloca ptr, align 8
  %14 = alloca ptr, align 8
  %15 = alloca i32, align 4
  %16 = alloca i32, align 4
  %17 = alloca ptr, align 8
  %18 = alloca ptr, align 8
  %19 = alloca i32, align 4
  %20 = alloca i32, align 4
  store ptr %0, ptr %9, align 8
  store i32 %1, ptr %10, align 4
  store ptr %2, ptr %11, align 8
  store ptr %3, ptr %12, align 8
  store ptr %4, ptr %13, align 8
  store ptr %5, ptr %14, align 8
  store i32 %6, ptr %15, align 4
  store i32 %7, ptr %16, align 4
  store ptr null, ptr %17, align 8
  store ptr null, ptr %18, align 8
  %21 = load i32, ptr %10, align 4
  store i32 %21, ptr %19, align 4
  %22 = load ptr, ptr %12, align 8
  %23 = icmp ne ptr %22, null
  br i1 %23, label %24, label %30

24:                                               ; preds = %8
  %25 = load ptr, ptr %12, align 8
  %26 = load ptr, ptr %9, align 8
  %27 = load i32, ptr %10, align 4
  %28 = load i32, ptr @ett_drsuapi_drsuapi_DsNameRequest, align 4
  %29 = call ptr @proto_tree_add_subtree(ptr noundef %25, ptr noundef %26, i32 noundef %27, i32 noundef -1, i32 noundef %28, ptr noundef %17, ptr noundef @.str.1753)
  store ptr %29, ptr %18, align 8
  br label %30

30:                                               ; preds = %24, %8
  %31 = load ptr, ptr %9, align 8
  %32 = load i32, ptr %10, align 4
  %33 = load ptr, ptr %11, align 8
  %34 = load ptr, ptr %18, align 8
  %35 = load ptr, ptr %13, align 8
  %36 = load ptr, ptr %14, align 8
  %37 = load i32, ptr %15, align 4
  %38 = call i32 @dissect_ndr_uint32(ptr noundef %31, i32 noundef %32, ptr noundef %33, ptr noundef %34, ptr noundef %35, ptr noundef %36, i32 noundef %37, ptr noundef %20)
  store i32 %38, ptr %10, align 4
  %39 = load ptr, ptr %13, align 8
  %40 = getelementptr inbounds %struct._dcerpc_info, ptr %39, i32 0, i32 14
  %41 = load ptr, ptr %40, align 8
  %42 = getelementptr inbounds %struct._dcerpc_call_value, ptr %41, i32 0, i32 11
  %43 = load i32, ptr %42, align 8
  %44 = and i32 %43, 1
  %45 = icmp ne i32 %44, 0
  br i1 %45, label %46, label %61

46:                                               ; preds = %30
  %47 = load ptr, ptr %13, align 8
  %48 = getelementptr inbounds %struct._dcerpc_info, ptr %47, i32 0, i32 4
  %49 = load i32, ptr %48, align 4
  %50 = icmp ne i32 %49, 0
  br i1 %50, label %60, label %51

51:                                               ; preds = %46
  %52 = load i32, ptr %10, align 4
  %53 = and i32 %52, 7
  %54 = icmp ne i32 %53, 0
  br i1 %54, label %55, label %59

55:                                               ; preds = %51
  %56 = load i32, ptr %10, align 4
  %57 = and i32 %56, -8
  %58 = add i32 %57, 8
  store i32 %58, ptr %10, align 4
  br label %59

59:                                               ; preds = %55, %51
  br label %60

60:                                               ; preds = %59, %46
  br label %76

61:                                               ; preds = %30
  %62 = load ptr, ptr %13, align 8
  %63 = getelementptr inbounds %struct._dcerpc_info, ptr %62, i32 0, i32 4
  %64 = load i32, ptr %63, align 4
  %65 = icmp ne i32 %64, 0
  br i1 %65, label %75, label %66

66:                                               ; preds = %61
  %67 = load i32, ptr %10, align 4
  %68 = and i32 %67, 3
  %69 = icmp ne i32 %68, 0
  br i1 %69, label %70, label %74

70:                                               ; preds = %66
  %71 = load i32, ptr %10, align 4
  %72 = and i32 %71, -4
  %73 = add i32 %72, 4
  store i32 %73, ptr %10, align 4
  br label %74

74:                                               ; preds = %70, %66
  br label %75

75:                                               ; preds = %74, %61
  br label %76

76:                                               ; preds = %75, %60
  %77 = load i32, ptr %20, align 4
  switch i32 %77, label %86 [
    i32 1, label %78
  ]

78:                                               ; preds = %76
  %79 = load ptr, ptr %9, align 8
  %80 = load i32, ptr %10, align 4
  %81 = load ptr, ptr %11, align 8
  %82 = load ptr, ptr %18, align 8
  %83 = load ptr, ptr %13, align 8
  %84 = load ptr, ptr %14, align 8
  %85 = call i32 @drsuapi_dissect_element_DsNameRequest_req1(ptr noundef %79, i32 noundef %80, ptr noundef %81, ptr noundef %82, ptr noundef %83, ptr noundef %84)
  store i32 %85, ptr %10, align 4
  br label %86

86:                                               ; preds = %78, %76
  %87 = load ptr, ptr %17, align 8
  %88 = load i32, ptr %10, align 4
  %89 = load i32, ptr %19, align 4
  %90 = sub i32 %88, %89
  call void @proto_item_set_len(ptr noundef %87, i32 noundef %90)
  %91 = load i32, ptr %10, align 4
  ret i32 %91
}

; Function Attrs: nounwind uwtable
define internal i32 @drsuapi_dissect_element_DsCrackNames_req_(ptr noundef %0, i32 noundef %1, ptr noundef %2, ptr noundef %3, ptr noundef %4, ptr noundef %5) #0 {
  %7 = alloca ptr, align 8
  %8 = alloca i32, align 4
  %9 = alloca ptr, align 8
  %10 = alloca ptr, align 8
  %11 = alloca ptr, align 8
  %12 = alloca ptr, align 8
  store ptr %0, ptr %7, align 8
  store i32 %1, ptr %8, align 4
  store ptr %2, ptr %9, align 8
  store ptr %3, ptr %10, align 8
  store ptr %4, ptr %11, align 8
  store ptr %5, ptr %12, align 8
  %13 = load ptr, ptr %7, align 8
  %14 = load i32, ptr %8, align 4
  %15 = load ptr, ptr %9, align 8
  %16 = load ptr, ptr %10, align 8
  %17 = load ptr, ptr %11, align 8
  %18 = load ptr, ptr %12, align 8
  %19 = load i32, ptr @hf_drsuapi_drsuapi_DsCrackNames_req, align 4
  %20 = call i32 @drsuapi_dissect_DsNameRequest(ptr noundef %13, i32 noundef %14, ptr noundef %15, ptr noundef %16, ptr noundef %17, ptr noundef %18, i32 noundef %19, i32 noundef 0)
  store i32 %20, ptr %8, align 4
  %21 = load i32, ptr %8, align 4
  ret i32 %21
}